target datalayout = "e-m:e-p270:32:32-p271:32:32-p272:64:64-i64:64-i128:128-f80:128-n8:16:32:64-S128"
target triple = "x86_64-pc-linux-gnu"

%"struct.Luau::TypeLevel" = type { i32, i32 }
%"class.std::__cxx11::basic_string" = type { %"struct.std::__cxx11::basic_string<char>::_Alloc_hider", i64, %union.anon }
%"struct.std::__cxx11::basic_string<char>::_Alloc_hider" = type { ptr }
%union.anon = type { i64, [8 x i8] }
%"struct.Luau::FreeType" = type { i32, %"struct.Luau::TypeLevel", ptr, i8, ptr, ptr }
%"struct.Luau::GenericType" = type <{ i32, %"struct.Luau::TypeLevel", [4 x i8], ptr, %"class.std::__cxx11::basic_string", i8, [7 x i8] }>

; Function Attrs: mustprogress nounwind uwtable
define linkonce_odr dso_local noundef zeroext i1 @_ZNK4Luau9TypeLevel8subsumesERKS0_(ptr noundef nonnull align 4 dereferenceable(8) %0, ptr noundef nonnull align 4 dereferenceable(8) %1) #2 comdat align 2 {
  %3 = alloca i1, align 1
  %4 = alloca ptr, align 8
  %5 = alloca ptr, align 8
  store ptr %0, ptr %4, align 8, !tbaa !606
  store ptr %1, ptr %5, align 8, !tbaa !606
  %6 = load ptr, ptr %4, align 8
  %7 = getelementptr inbounds nuw %"struct.Luau::TypeLevel", ptr %6, i32 0, i32 0
  %8 = load i32, ptr %7, align 4, !tbaa !712
  %9 = load ptr, ptr %5, align 8, !tbaa !606
  %10 = getelementptr inbounds nuw %"struct.Luau::TypeLevel", ptr %9, i32 0, i32 0
  %11 = load i32, ptr %10, align 4, !tbaa !712
  %12 = icmp slt i32 %8, %11
  br i1 %12, label %13, label %14

13:                                               ; preds = %2
  store i1 true, ptr %3, align 1
  br label %31

14:                                               ; preds = %2
  %15 = getelementptr inbounds nuw %"struct.Luau::TypeLevel", ptr %6, i32 0, i32 0
  %16 = load i32, ptr %15, align 4, !tbaa !712
  %17 = load ptr, ptr %5, align 8, !tbaa !606
  %18 = getelementptr inbounds nuw %"struct.Luau::TypeLevel", ptr %17, i32 0, i32 0
  %19 = load i32, ptr %18, align 4, !tbaa !712
  %20 = icmp sgt i32 %16, %19
  br i1 %20, label %21, label %22

21:                                               ; preds = %14
  store i1 false, ptr %3, align 1
  br label %31

22:                                               ; preds = %14
  %23 = getelementptr inbounds nuw %"struct.Luau::TypeLevel", ptr %6, i32 0, i32 1
  %24 = load i32, ptr %23, align 4, !tbaa !713
  %25 = load ptr, ptr %5, align 8, !tbaa !606
  %26 = getelementptr inbounds nuw %"struct.Luau::TypeLevel", ptr %25, i32 0, i32 1
  %27 = load i32, ptr %26, align 4, !tbaa !713
  %28 = icmp eq i32 %24, %27
  br i1 %28, label %29, label %30

29:                                               ; preds = %22
  store i1 true, ptr %3, align 1
  br label %31

30:                                               ; preds = %22
  store i1 false, ptr %3, align 1
  br label %31

31:                                               ; preds = %30, %29, %21, %13
  %32 = load i1, ptr %3, align 1
  ret i1 %32
}

; Function Attrs: mustprogress uwtable
define internal noundef zeroext i1 @_ZN4LuauL8subsumesINS_11GenericTypeENS_8FreeTypeEEEbbPT_PT0_(i1 noundef zeroext %0, ptr noundef %1, ptr noundef %2) #3 {
  %4 = alloca i1, align 1
  %5 = alloca i8, align 1
  %6 = alloca ptr, align 8
  %7 = alloca ptr, align 8
  %8 = zext i1 %0 to i8
  store i8 %8, ptr %5, align 1, !tbaa !13
  store ptr %1, ptr %6, align 8, !tbaa !263
  store ptr %2, ptr %7, align 8, !tbaa !261
  %9 = load i8, ptr %5, align 1, !tbaa !13, !range !15, !noundef !16
  %10 = trunc i8 %9 to i1
  br i1 %10, label %11, label %19

11:                                               ; preds = %3
  %12 = load ptr, ptr %6, align 8, !tbaa !263
  %13 = getelementptr inbounds nuw %"struct.Luau::GenericType", ptr %12, i32 0, i32 3
  %14 = load ptr, ptr %13, align 8, !tbaa !324
  %15 = load ptr, ptr %7, align 8, !tbaa !261
  %16 = getelementptr inbounds nuw %"struct.Luau::FreeType", ptr %15, i32 0, i32 2
  %17 = load ptr, ptr %16, align 8, !tbaa !265
  %18 = call noundef zeroext i1 @_ZN4Luau8subsumesEPNS_5ScopeES1_(ptr noundef %14, ptr noundef %17)
  store i1 %18, ptr %4, align 1
  br label %25

19:                                               ; preds = %3
  %20 = load ptr, ptr %6, align 8, !tbaa !263
  %21 = getelementptr inbounds nuw %"struct.Luau::GenericType", ptr %20, i32 0, i32 1
  %22 = load ptr, ptr %7, align 8, !tbaa !261
  %23 = getelementptr inbounds nuw %"struct.Luau::FreeType", ptr %22, i32 0, i32 1
  %24 = call noundef zeroext i1 @_ZNK4Luau9TypeLevel8subsumesERKS0_(ptr noundef nonnull align 4 dereferenceable(8) %21, ptr noundef nonnull align 4 dereferenceable(8) %23)
  store i1 %24, ptr %4, align 1
  br label %25

25:                                               ; preds = %19, %11
  %26 = load i1, ptr %4, align 1
  ret i1 %26
}